; Function Attrs: mustprogress nounwind uwtable
define internal void @_ZN7openvdb5v11_02io12_GLOBAL__N_14TaskD2Ev(ptr noundef nonnull align 8 dereferenceable(48) %this) unnamed_addr #6 align 2 personality ptr @__gxx_personality_v0 {
entry:
  store ptr getelementptr inbounds ({ [5 x ptr] }, ptr @_ZTVN7openvdb5v11_02io12_GLOBAL__N_14TaskE, i64 0, i32 0, i64 2), ptr %this, align 8
  %_M_manager.i.i = getelementptr inbounds i8, ptr %this, i64 32
  %0 = load ptr, ptr %_M_manager.i.i, align 8
  %tobool.not.i.i = icmp eq ptr %0, null
  br i1 %tobool.not.i.i, label %_ZNSt8functionIFvjN7openvdb5v11_02io5Queue6StatusEEED2Ev.exit, label %if.then.i.i

if.then.i.i:                                      ; preds = %entry
  %mNotify = getelementptr inbounds i8, ptr %this, i64 16
  %call.i.i = invoke noundef zeroext i1 %0(ptr noundef nonnull align 8 dereferenceable(16) %mNotify, ptr noundef nonnull align 8 dereferenceable(16) %mNotify, i32 noundef 3)
          to label %_ZNSt8functionIFvjN7openvdb5v11_02io5Queue6StatusEEED2Ev.exit unwind label %terminate.lpad.i.i

terminate.lpad.i.i:                               ; preds = %if.then.i.i
  %1 = landingpad { ptr, i32 }
          catch ptr null
  %2 = extractvalue { ptr, i32 } %1, 0
  tail call void @__clang_call_terminate(ptr %2) #28
  unreachable

_ZNSt8functionIFvjN7openvdb5v11_02io5Queue6StatusEEED2Ev.exit: ; preds = %entry, %if.then.i.i
  ret void
}